target datalayout = "e-m:e-p270:32:32-p271:32:32-p272:64:64-i64:64-i128:128-f80:128-n8:16:32:64-S128"
target triple = "x86_64-unknown-linux-gnu"

%"class.llvh::StringRef" = type { ptr, i64 }
%"class.llvh::SMLoc" = type { ptr }
%"class.llvh::Twine" = type <{ %"union.llvh::Twine::Child", %"union.llvh::Twine::Child", i8, i8, [6 x i8] }>
%"union.llvh::Twine::Child" = type { ptr }
%"class.llvh::ArrayRef" = type { ptr, i64 }
%"class.llvh::ArrayRef.24" = type { ptr, i64 }
%"class.std::__cxx11::basic_string" = type { %"struct.std::__cxx11::basic_string<char>::_Alloc_hider", i64, %union.anon }
%"struct.std::__cxx11::basic_string<char>::_Alloc_hider" = type { ptr }
%union.anon = type { i64, [8 x i8] }
%"class.llvh::FileCheckPattern" = type { %"class.llvh::SMLoc", %"class.llvh::StringRef", %"class.std::__cxx11::basic_string", %"class.std::vector.3", %"class.std::map", i32, i32 }
%"class.std::vector.3" = type { %"struct.std::_Vector_base.4" }
%"struct.std::_Vector_base.4" = type { %"struct.std::_Vector_base<std::pair<llvh::StringRef, unsigned int>, std::allocator<std::pair<llvh::StringRef, unsigned int>>>::_Vector_impl" }
%"struct.std::_Vector_base<std::pair<llvh::StringRef, unsigned int>, std::allocator<std::pair<llvh::StringRef, unsigned int>>>::_Vector_impl" = type { %"struct.std::_Vector_base<std::pair<llvh::StringRef, unsigned int>, std::allocator<std::pair<llvh::StringRef, unsigned int>>>::_Vector_impl_data" }
%"struct.std::_Vector_base<std::pair<llvh::StringRef, unsigned int>, std::allocator<std::pair<llvh::StringRef, unsigned int>>>::_Vector_impl_data" = type { ptr, ptr, ptr }
%"class.std::map" = type { %"class.std::_Rb_tree" }
%"class.std::_Rb_tree" = type { %"struct.std::_Rb_tree<llvh::StringRef, std::pair<const llvh::StringRef, unsigned int>, std::_Select1st<std::pair<const llvh::StringRef, unsigned int>>, std::less<llvh::StringRef>>::_Rb_tree_impl" }
%"struct.std::_Rb_tree<llvh::StringRef, std::pair<const llvh::StringRef, unsigned int>, std::_Select1st<std::pair<const llvh::StringRef, unsigned int>>, std::less<llvh::StringRef>>::_Rb_tree_impl" = type { %"struct.std::_Rb_tree_key_compare", %"struct.std::_Rb_tree_header" }
%"struct.std::_Rb_tree_key_compare" = type { %"struct.std::less" }
%"struct.std::less" = type { i8 }
%"struct.std::_Rb_tree_header" = type { %"struct.std::_Rb_tree_node_base", i64 }
%"struct.std::_Rb_tree_node_base" = type { i32, ptr, ptr, ptr }
%"class.std::vector.43" = type { %"struct.std::_Vector_base.44" }
%"struct.std::_Vector_base.44" = type { %"struct.std::_Vector_base<llvh::FileCheckPattern, std::allocator<llvh::FileCheckPattern>>::_Vector_impl" }
%"struct.std::_Vector_base<llvh::FileCheckPattern, std::allocator<llvh::FileCheckPattern>>::_Vector_impl" = type { %"struct.std::_Vector_base<llvh::FileCheckPattern, std::allocator<llvh::FileCheckPattern>>::_Vector_impl_data" }
%"struct.std::_Vector_base<llvh::FileCheckPattern, std::allocator<llvh::FileCheckPattern>>::_Vector_impl_data" = type { ptr, ptr, ptr }
%"struct.llvh::FileCheckString" = type { %"class.llvh::FileCheckPattern", %"class.llvh::StringRef", %"class.llvh::SMLoc", %"class.std::vector.43" }

@.str.48 = private unnamed_addr constant [22 x i8] c"'next' match was here\00", align 1
@.str.49 = private unnamed_addr constant [26 x i8] c"previous match ended here\00", align 1
@.str.52 = private unnamed_addr constant [53 x i8] c"-SAME: is not on the same line as the previous match\00", align 1

; Function Attrs: mustprogress nounwind uwtable
define linkonce_odr hidden void @_ZN4llvh5SMLocC2Ev(ptr noundef nonnull align 8 dereferenceable(8) %this) unnamed_addr #0 comdat align 2 {
entry:
  %this.addr = alloca ptr, align 8
  store ptr %this, ptr %this.addr, align 8
  %this1 = load ptr, ptr %this.addr, align 8
  %Ptr = getelementptr inbounds %"class.llvh::SMLoc", ptr %this1, i32 0, i32 0
  store ptr null, ptr %Ptr, align 8
  ret void
}

; Function Attrs: mustprogress nounwind uwtable
define linkonce_odr hidden void @_ZN4llvh5TwineC2ERKNS_9StringRefEPKc(ptr noundef nonnull align 8 dereferenceable(18) %this, ptr noundef nonnull align 8 dereferenceable(16) %LHS, ptr noundef %RHS) unnamed_addr #0 comdat align 2 {
entry:
  %this.addr = alloca ptr, align 8
  %LHS.addr = alloca ptr, align 8
  %RHS.addr = alloca ptr, align 8
  store ptr %this, ptr %this.addr, align 8
  store ptr %LHS, ptr %LHS.addr, align 8
  store ptr %RHS, ptr %RHS.addr, align 8
  %this1 = load ptr, ptr %this.addr, align 8
  %LHSKind = getelementptr inbounds %"class.llvh::Twine", ptr %this1, i32 0, i32 2
  store i8 5, ptr %LHSKind, align 8
  %RHSKind = getelementptr inbounds %"class.llvh::Twine", ptr %this1, i32 0, i32 3
  store i8 3, ptr %RHSKind, align 1
  %0 = load ptr, ptr %LHS.addr, align 8
  %LHS4 = getelementptr inbounds %"class.llvh::Twine", ptr %this1, i32 0, i32 0
  store ptr %0, ptr %LHS4, align 8
  %1 = load ptr, ptr %RHS.addr, align 8
  %RHS5 = getelementptr inbounds %"class.llvh::Twine", ptr %this1, i32 0, i32 1
  store ptr %1, ptr %RHS5, align 8
  ret void
}

; Function Attrs: mustprogress nounwind uwtable
define linkonce_odr hidden void @_ZN4llvh5TwineC2EPKc(ptr noundef nonnull align 8 dereferenceable(18) %this, ptr noundef %Str) unnamed_addr #0 comdat align 2 {
entry:
  %this.addr = alloca ptr, align 8
  %Str.addr = alloca ptr, align 8
  store ptr %this, ptr %this.addr, align 8
  store ptr %Str, ptr %Str.addr, align 8
  %this1 = load ptr, ptr %this.addr, align 8
  %LHSKind = getelementptr inbounds %"class.llvh::Twine", ptr %this1, i32 0, i32 2
  store i8 1, ptr %LHSKind, align 8
  %RHSKind = getelementptr inbounds %"class.llvh::Twine", ptr %this1, i32 0, i32 3
  store i8 1, ptr %RHSKind, align 1
  %0 = load ptr, ptr %Str.addr, align 8
  %arrayidx = getelementptr inbounds i8, ptr %0, i64 0
  %1 = load i8, ptr %arrayidx, align 1
  %conv = sext i8 %1 to i32
  %cmp = icmp ne i32 %conv, 0
  br i1 %cmp, label %if.then, label %if.else

if.then:                                          ; preds = %entry
  %2 = load ptr, ptr %Str.addr, align 8
  %LHS2 = getelementptr inbounds %"class.llvh::Twine", ptr %this1, i32 0, i32 0
  store ptr %2, ptr %LHS2, align 8
  %LHSKind3 = getelementptr inbounds %"class.llvh::Twine", ptr %this1, i32 0, i32 2
  store i8 3, ptr %LHSKind3, align 8
  br label %if.end

if.else:                                          ; preds = %entry
  %LHSKind4 = getelementptr inbounds %"class.llvh::Twine", ptr %this1, i32 0, i32 2
  store i8 1, ptr %LHSKind4, align 8
  br label %if.end

if.end:                                           ; preds = %if.else, %if.then
  ret void
}

; Function Attrs: mustprogress nounwind uwtable
define linkonce_odr hidden ptr @_ZN4llvh5SMLoc14getFromPointerEPKc(ptr noundef %Ptr) #0 comdat align 2 {
entry:
  %retval = alloca %"class.llvh::SMLoc", align 8
  %Ptr.addr = alloca ptr, align 8
  store ptr %Ptr, ptr %Ptr.addr, align 8
  call void @_ZN4llvh5SMLocC2Ev(ptr noundef nonnull align 8 dereferenceable(8) %retval) #13
  %0 = load ptr, ptr %Ptr.addr, align 8
  %Ptr1 = getelementptr inbounds %"class.llvh::SMLoc", ptr %retval, i32 0, i32 0
  store ptr %0, ptr %Ptr1, align 8
  %coerce.dive = getelementptr inbounds %"class.llvh::SMLoc", ptr %retval, i32 0, i32 0
  %1 = load ptr, ptr %coerce.dive, align 8
  ret ptr %1
}

; Function Attrs: mustprogress nounwind uwtable
define linkonce_odr hidden noundef ptr @_ZNK4llvh9StringRef3endEv(ptr noundef nonnull align 8 dereferenceable(16) %this) #0 comdat align 2 {
entry:
  %this.addr = alloca ptr, align 8
  store ptr %this, ptr %this.addr, align 8
  %this1 = load ptr, ptr %this.addr, align 8
  %Data = getelementptr inbounds %"class.llvh::StringRef", ptr %this1, i32 0, i32 0
  %0 = load ptr, ptr %Data, align 8
  %Length = getelementptr inbounds %"class.llvh::StringRef", ptr %this1, i32 0, i32 1
  %1 = load i64, ptr %Length, align 8
  %add.ptr = getelementptr inbounds i8, ptr %0, i64 %1
  ret ptr %add.ptr
}

; Function Attrs: mustprogress nounwind uwtable
define linkonce_odr hidden void @_ZN4llvh8ArrayRefINS_7SMFixItEEC2ENS_8NoneTypeE(ptr noundef nonnull align 8 dereferenceable(16) %this, i32 noundef %0) unnamed_addr #0 comdat align 2 {
entry:
  %this.addr = alloca ptr, align 8
  %.addr = alloca i32, align 4
  store ptr %this, ptr %this.addr, align 8
  store i32 %0, ptr %.addr, align 4
  %this1 = load ptr, ptr %this.addr, align 8
  %Data = getelementptr inbounds %"class.llvh::ArrayRef.24", ptr %this1, i32 0, i32 0
  store ptr null, ptr %Data, align 8
  %Length = getelementptr inbounds %"class.llvh::ArrayRef.24", ptr %this1, i32 0, i32 1
  store i64 0, ptr %Length, align 8
  ret void
}

; Function Attrs: mustprogress nounwind uwtable
define linkonce_odr hidden void @_ZN4llvh8ArrayRefINS_7SMRangeEEC2ENS_8NoneTypeE(ptr noundef nonnull align 8 dereferenceable(16) %this, i32 noundef %0) unnamed_addr #0 comdat align 2 {
entry:
  %this.addr = alloca ptr, align 8
  %.addr = alloca i32, align 4
  store ptr %this, ptr %this.addr, align 8
  store i32 %0, ptr %.addr, align 4
  %this1 = load ptr, ptr %this.addr, align 8
  %Data = getelementptr inbounds %"class.llvh::ArrayRef", ptr %this1, i32 0, i32 0
  store ptr null, ptr %Data, align 8
  %Length = getelementptr inbounds %"class.llvh::ArrayRef", ptr %this1, i32 0, i32 1
  store i64 0, ptr %Length, align 8
  ret void
}

; Function Attrs: mustprogress nounwind uwtable
define linkonce_odr hidden void @_ZN4llvhplERKNS_9StringRefEPKc(ptr noalias sret(%"class.llvh::Twine") align 8 %agg.result, ptr noundef nonnull align 8 dereferenceable(16) %LHS, ptr noundef %RHS) #0 comdat {
entry:
  %LHS.addr = alloca ptr, align 8
  %RHS.addr = alloca ptr, align 8
  store ptr %LHS, ptr %LHS.addr, align 8
  store ptr %RHS, ptr %RHS.addr, align 8
  %0 = load ptr, ptr %LHS.addr, align 8
  %1 = load ptr, ptr %RHS.addr, align 8
  call void @_ZN4llvh5TwineC2ERKNS_9StringRefEPKc(ptr noundef nonnull align 8 dereferenceable(18) %agg.result, ptr noundef nonnull align 8 dereferenceable(16) %0, ptr noundef %1)
  ret void
}

; Function Attrs: mustprogress nounwind uwtable
define linkonce_odr hidden noundef i32 @_ZNK4llvh16FileCheckPattern10getCheckTyEv(ptr noundef nonnull align 8 dereferenceable(136) %this) #0 comdat align 2 {
entry:
  %this.addr = alloca ptr, align 8
  store ptr %this, ptr %this.addr, align 8
  %this1 = load ptr, ptr %this.addr, align 8
  %CheckTy = getelementptr inbounds %"class.llvh::FileCheckPattern", ptr %this1, i32 0, i32 5
  %0 = load i32, ptr %CheckTy, align 8
  ret i32 %0
}

; Function Attrs: mustprogress nounwind uwtable
define hidden noundef zeroext i1 @_ZNK4llvh15FileCheckString9CheckSameERKNS_9SourceMgrENS_9StringRefE(ptr noundef nonnull align 8 dereferenceable(184) %this, ptr noundef nonnull align 8 dereferenceable(120) %SM, ptr %Buffer.coerce0, i64 %Buffer.coerce1) #0 align 2 {
entry:
  %this.addr.i = alloca ptr, align 8
  %retval = alloca i1, align 1
  %Buffer = alloca %"class.llvh::StringRef", align 8
  %this.addr = alloca ptr, align 8
  %SM.addr = alloca ptr, align 8
  %FirstNewLine = alloca ptr, align 8
  %NumNewLines = alloca i32, align 4
  %agg.tmp = alloca %"class.llvh::StringRef", align 8
  %agg.tmp5 = alloca %"class.llvh::SMLoc", align 8
  %ref.tmp = alloca %"class.llvh::Twine", align 8
  %agg.tmp6 = alloca %"class.llvh::ArrayRef", align 8
  %agg.tmp7 = alloca %"class.llvh::ArrayRef.24", align 8
  %agg.tmp8 = alloca %"class.llvh::SMLoc", align 8
  %ref.tmp12 = alloca %"class.llvh::Twine", align 8
  %agg.tmp13 = alloca %"class.llvh::ArrayRef", align 8
  %agg.tmp14 = alloca %"class.llvh::ArrayRef.24", align 8
  %agg.tmp16 = alloca %"class.llvh::SMLoc", align 8
  %ref.tmp20 = alloca %"class.llvh::Twine", align 8
  %agg.tmp21 = alloca %"class.llvh::ArrayRef", align 8
  %agg.tmp22 = alloca %"class.llvh::ArrayRef.24", align 8
  %0 = getelementptr inbounds { ptr, i64 }, ptr %Buffer, i32 0, i32 0
  store ptr %Buffer.coerce0, ptr %0, align 8
  %1 = getelementptr inbounds { ptr, i64 }, ptr %Buffer, i32 0, i32 1
  store i64 %Buffer.coerce1, ptr %1, align 8
  store ptr %this, ptr %this.addr, align 8
  store ptr %SM, ptr %SM.addr, align 8
  %this1 = load ptr, ptr %this.addr, align 8
  %Pat = getelementptr inbounds %"struct.llvh::FileCheckString", ptr %this1, i32 0, i32 0
  %call = call noundef i32 @_ZNK4llvh16FileCheckPattern10getCheckTyEv(ptr noundef nonnull align 8 dereferenceable(136) %Pat)
  %cmp = icmp ne i32 %call, 3
  br i1 %cmp, label %if.then, label %if.end

if.then:                                          ; preds = %entry
  store i1 false, ptr %retval, align 1
  br label %return

if.end:                                           ; preds = %entry
  store ptr null, ptr %FirstNewLine, align 8
  call void @llvm.memcpy.p0.p0.i64(ptr align 8 %agg.tmp, ptr align 8 %Buffer, i64 16, i1 false)
  %2 = getelementptr inbounds { ptr, i64 }, ptr %agg.tmp, i32 0, i32 0
  %3 = load ptr, ptr %2, align 8
  %4 = getelementptr inbounds { ptr, i64 }, ptr %agg.tmp, i32 0, i32 1
  %5 = load i64, ptr %4, align 8
  %call2 = call noundef i32 @_ZL23CountNumNewlinesBetweenN4llvh9StringRefERPKc(ptr %3, i64 %5, ptr noundef nonnull align 8 dereferenceable(8) %FirstNewLine)
  store i32 %call2, ptr %NumNewLines, align 4
  %6 = load i32, ptr %NumNewLines, align 4
  %cmp3 = icmp ne i32 %6, 0
  br i1 %cmp3, label %if.then4, label %if.end24

if.then4:                                         ; preds = %if.end
  %7 = load ptr, ptr %SM.addr, align 8
  %Loc = getelementptr inbounds %"struct.llvh::FileCheckString", ptr %this1, i32 0, i32 2
  call void @llvm.memcpy.p0.p0.i64(ptr align 8 %agg.tmp5, ptr align 8 %Loc, i64 8, i1 false)
  %Prefix = getelementptr inbounds %"struct.llvh::FileCheckString", ptr %this1, i32 0, i32 1
  call void @_ZN4llvhplERKNS_9StringRefEPKc(ptr sret(%"class.llvh::Twine") align 8 %ref.tmp, ptr noundef nonnull align 8 dereferenceable(16) %Prefix, ptr noundef @.str.52)
  call void @_ZN4llvh8ArrayRefINS_7SMRangeEEC2ENS_8NoneTypeE(ptr noundef nonnull align 8 dereferenceable(16) %agg.tmp6, i32 noundef 1)
  call void @_ZN4llvh8ArrayRefINS_7SMFixItEEC2ENS_8NoneTypeE(ptr noundef nonnull align 8 dereferenceable(16) %agg.tmp7, i32 noundef 1)
  %coerce.dive = getelementptr inbounds %"class.llvh::SMLoc", ptr %agg.tmp5, i32 0, i32 0
  %8 = load ptr, ptr %coerce.dive, align 8
  %9 = getelementptr inbounds { ptr, i64 }, ptr %agg.tmp6, i32 0, i32 0
  %10 = load ptr, ptr %9, align 8
  %11 = getelementptr inbounds { ptr, i64 }, ptr %agg.tmp6, i32 0, i32 1
  %12 = load i64, ptr %11, align 8
  call void @_ZNK4llvh9SourceMgr12PrintMessageENS_5SMLocENS0_8DiagKindERKNS_5TwineENS_8ArrayRefINS_7SMRangeEEENS6_INS_7SMFixItEEEb(ptr noundef nonnull align 8 dereferenceable(120) %7, ptr %8, i32 noundef 0, ptr noundef nonnull align 8 dereferenceable(18) %ref.tmp, ptr %10, i64 %12, ptr noundef byval(%"class.llvh::ArrayRef.24") align 8 %agg.tmp7, i1 noundef zeroext true)
  %13 = load ptr, ptr %SM.addr, align 8
  %call9 = call noundef ptr @_ZNK4llvh9StringRef3endEv(ptr noundef nonnull align 8 dereferenceable(16) %Buffer)
  %call10 = call ptr @_ZN4llvh5SMLoc14getFromPointerEPKc(ptr noundef %call9)
  %coerce.dive11 = getelementptr inbounds %"class.llvh::SMLoc", ptr %agg.tmp8, i32 0, i32 0
  store ptr %call10, ptr %coerce.dive11, align 8
  call void @_ZN4llvh5TwineC2EPKc(ptr noundef nonnull align 8 dereferenceable(18) %ref.tmp12, ptr noundef @.str.48)
  call void @_ZN4llvh8ArrayRefINS_7SMRangeEEC2ENS_8NoneTypeE(ptr noundef nonnull align 8 dereferenceable(16) %agg.tmp13, i32 noundef 1)
  call void @_ZN4llvh8ArrayRefINS_7SMFixItEEC2ENS_8NoneTypeE(ptr noundef nonnull align 8 dereferenceable(16) %agg.tmp14, i32 noundef 1)
  %coerce.dive15 = getelementptr inbounds %"class.llvh::SMLoc", ptr %agg.tmp8, i32 0, i32 0
  %14 = load ptr, ptr %coerce.dive15, align 8
  %15 = getelementptr inbounds { ptr, i64 }, ptr %agg.tmp13, i32 0, i32 0
  %16 = load ptr, ptr %15, align 8
  %17 = getelementptr inbounds { ptr, i64 }, ptr %agg.tmp13, i32 0, i32 1
  %18 = load i64, ptr %17, align 8
  call void @_ZNK4llvh9SourceMgr12PrintMessageENS_5SMLocENS0_8DiagKindERKNS_5TwineENS_8ArrayRefINS_7SMRangeEEENS6_INS_7SMFixItEEEb(ptr noundef nonnull align 8 dereferenceable(120) %13, ptr %14, i32 noundef 3, ptr noundef nonnull align 8 dereferenceable(18) %ref.tmp12, ptr %16, i64 %18, ptr noundef byval(%"class.llvh::ArrayRef.24") align 8 %agg.tmp14, i1 noundef zeroext true)
  %19 = load ptr, ptr %SM.addr, align 8
  store ptr %Buffer, ptr %this.addr.i, align 8
  %this1.i = load ptr, ptr %this.addr.i, align 8
  %20 = load ptr, ptr %this1.i, align 8
  %call18 = call ptr @_ZN4llvh5SMLoc14getFromPointerEPKc(ptr noundef %20)
  %coerce.dive19 = getelementptr inbounds %"class.llvh::SMLoc", ptr %agg.tmp16, i32 0, i32 0
  store ptr %call18, ptr %coerce.dive19, align 8
  call void @_ZN4llvh5TwineC2EPKc(ptr noundef nonnull align 8 dereferenceable(18) %ref.tmp20, ptr noundef @.str.49)
  call void @_ZN4llvh8ArrayRefINS_7SMRangeEEC2ENS_8NoneTypeE(ptr noundef nonnull align 8 dereferenceable(16) %agg.tmp21, i32 noundef 1)
  call void @_ZN4llvh8ArrayRefINS_7SMFixItEEC2ENS_8NoneTypeE(ptr noundef nonnull align 8 dereferenceable(16) %agg.tmp22, i32 noundef 1)
  %coerce.dive23 = getelementptr inbounds %"class.llvh::SMLoc", ptr %agg.tmp16, i32 0, i32 0
  %21 = load ptr, ptr %coerce.dive23, align 8
  %22 = getelementptr inbounds { ptr, i64 }, ptr %agg.tmp21, i32 0, i32 0
  %23 = load ptr, ptr %22, align 8
  %24 = getelementptr inbounds { ptr, i64 }, ptr %agg.tmp21, i32 0, i32 1
  %25 = load i64, ptr %24, align 8
  call void @_ZNK4llvh9SourceMgr12PrintMessageENS_5SMLocENS0_8DiagKindERKNS_5TwineENS_8ArrayRefINS_7SMRangeEEENS6_INS_7SMFixItEEEb(ptr noundef nonnull align 8 dereferenceable(120) %19, ptr %21, i32 noundef 3, ptr noundef nonnull align 8 dereferenceable(18) %ref.tmp20, ptr %23, i64 %25, ptr noundef byval(%"class.llvh::ArrayRef.24") align 8 %agg.tmp22, i1 noundef zeroext true)
  store i1 true, ptr %retval, align 1
  br label %return

if.end24:                                         ; preds = %if.end
  store i1 false, ptr %retval, align 1
  br label %return

return:                                           ; preds = %if.end24, %if.then4, %if.then
  %26 = load i1, ptr %retval, align 1
  ret i1 %26
}