; Function Attrs: mustprogress nounwind uwtable
define hidden noundef zeroext i1 @_ZNK4llvh15FileCheckString9CheckSameERKNS_9SourceMgrENS_9StringRefE(ptr noundef nonnull align 8 dereferenceable(184) %this, ptr noundef nonnull align 8 dereferenceable(120) %SM, ptr %Buffer.coerce0, i64 %Buffer.coerce1) local_unnamed_addr #0 align 2 {
entry:
  %FirstNewLine = alloca ptr, align 8
  %ref.tmp = alloca %"class.llvh::Twine", align 8
  %agg.tmp7 = alloca %"class.llvh::ArrayRef.24", align 8
  %ref.tmp12 = alloca %"class.llvh::Twine", align 8
  %agg.tmp14 = alloca %"class.llvh::ArrayRef.24", align 8
  %ref.tmp20 = alloca %"class.llvh::Twine", align 8
  %agg.tmp22 = alloca %"class.llvh::ArrayRef.24", align 8
  %CheckTy.i = getelementptr inbounds i8, ptr %this, i64 128
  %0 = load i32, ptr %CheckTy.i, align 8
  %cmp.not = icmp eq i32 %0, 3
  br i1 %cmp.not, label %if.end, label %return

if.end:                                           ; preds = %entry
  %call2 = call fastcc noundef i32 @_ZL23CountNumNewlinesBetweenN4llvh9StringRefERPKc(ptr %Buffer.coerce0, i64 %Buffer.coerce1, ptr noundef nonnull align 8 dereferenceable(8) %FirstNewLine)
  %cmp3.not = icmp eq i32 %call2, 0
  br i1 %cmp3.not, label %return, label %if.then4

if.then4:                                         ; preds = %if.end
  %Loc = getelementptr inbounds i8, ptr %this, i64 152
  %agg.tmp5.sroa.0.0.copyload = load ptr, ptr %Loc, align 8
  %Prefix = getelementptr inbounds i8, ptr %this, i64 136
  %LHSKind.i.i = getelementptr inbounds i8, ptr %ref.tmp, i64 16
  store i8 5, ptr %LHSKind.i.i, align 8, !alias.scope !134
  %RHSKind.i.i = getelementptr inbounds i8, ptr %ref.tmp, i64 17
  store i8 3, ptr %RHSKind.i.i, align 1, !alias.scope !134
  store ptr %Prefix, ptr %ref.tmp, align 8, !alias.scope !134
  %RHS5.i.i = getelementptr inbounds i8, ptr %ref.tmp, i64 8
  store ptr @.str.52, ptr %RHS5.i.i, align 8, !alias.scope !134
  call void @llvm.memset.p0.i64(ptr noundef nonnull align 8 dereferenceable(16) %agg.tmp7, i8 0, i64 16, i1 false)
  call void @_ZNK4llvh9SourceMgr12PrintMessageENS_5SMLocENS0_8DiagKindERKNS_5TwineENS_8ArrayRefINS_7SMRangeEEENS6_INS_7SMFixItEEEb(ptr noundef nonnull align 8 dereferenceable(120) %SM, ptr %agg.tmp5.sroa.0.0.copyload, i32 noundef 0, ptr noundef nonnull align 8 dereferenceable(18) %ref.tmp, ptr null, i64 0, ptr noundef nonnull byval(%"class.llvh::ArrayRef.24") align 8 %agg.tmp7, i1 noundef zeroext true) #18
  %add.ptr.i = getelementptr inbounds i8, ptr %Buffer.coerce0, i64 %Buffer.coerce1
  %LHSKind.i = getelementptr inbounds i8, ptr %ref.tmp12, i64 16
  %RHSKind.i = getelementptr inbounds i8, ptr %ref.tmp12, i64 17
  store i8 1, ptr %RHSKind.i, align 1
  store ptr @.str.48, ptr %ref.tmp12, align 8
  store i8 3, ptr %LHSKind.i, align 8
  call void @llvm.memset.p0.i64(ptr noundef nonnull align 8 dereferenceable(16) %agg.tmp14, i8 0, i64 16, i1 false)
  call void @_ZNK4llvh9SourceMgr12PrintMessageENS_5SMLocENS0_8DiagKindERKNS_5TwineENS_8ArrayRefINS_7SMRangeEEENS6_INS_7SMFixItEEEb(ptr noundef nonnull align 8 dereferenceable(120) %SM, ptr %add.ptr.i, i32 noundef 3, ptr noundef nonnull align 8 dereferenceable(18) %ref.tmp12, ptr null, i64 0, ptr noundef nonnull byval(%"class.llvh::ArrayRef.24") align 8 %agg.tmp14, i1 noundef zeroext true) #18
  %LHSKind.i3 = getelementptr inbounds i8, ptr %ref.tmp20, i64 16
  %RHSKind.i4 = getelementptr inbounds i8, ptr %ref.tmp20, i64 17
  store i8 1, ptr %RHSKind.i4, align 1
  store ptr @.str.49, ptr %ref.tmp20, align 8
  store i8 3, ptr %LHSKind.i3, align 8
  call void @llvm.memset.p0.i64(ptr noundef nonnull align 8 dereferenceable(16) %agg.tmp22, i8 0, i64 16, i1 false)
  call void @_ZNK4llvh9SourceMgr12PrintMessageENS_5SMLocENS0_8DiagKindERKNS_5TwineENS_8ArrayRefINS_7SMRangeEEENS6_INS_7SMFixItEEEb(ptr noundef nonnull align 8 dereferenceable(120) %SM, ptr %Buffer.coerce0, i32 noundef 3, ptr noundef nonnull align 8 dereferenceable(18) %ref.tmp20, ptr null, i64 0, ptr noundef nonnull byval(%"class.llvh::ArrayRef.24") align 8 %agg.tmp22, i1 noundef zeroext true) #18
  br label %return

return:                                           ; preds = %if.end, %entry, %if.then4
  %retval.0 = phi i1 [ true, %if.then4 ], [ false, %entry ], [ false, %if.end ]
  ret i1 %retval.0
}